target datalayout = "e-m:e-p270:32:32-p271:32:32-p272:64:64-i64:64-i128:128-f80:128-n8:16:32:64-S128"
target triple = "x86_64-pc-linux-gnu"

%struct.jpeg_compress_struct = type { ptr, ptr, ptr, ptr, i32, i32, ptr, i32, i32, i32, i32, double, i32, i32, i32, ptr, [4 x ptr], [4 x ptr], [4 x ptr], [16 x i8], [16 x i8], [16 x i8], i32, ptr, i32, i32, i32, i32, i32, i32, i32, i32, i32, i8, i8, i8, i16, i16, i32, i32, i32, i32, i32, i32, i32, [4 x ptr], i32, i32, i32, [10 x i32], i32, i32, i32, i32, ptr, ptr, ptr, ptr, ptr, ptr, ptr, ptr, ptr, ptr, i32 }
%struct.jpeg_memory_mgr = type { ptr, ptr, ptr, ptr, ptr, ptr, ptr, ptr, ptr, ptr, ptr, i64, i64 }
%struct.my_diff_controller = type { %struct.jpeg_c_coef_controller, i32, i32, i32, i32, [10 x ptr], [10 x ptr], [10 x ptr], [10 x ptr] }
%struct.jpeg_c_coef_controller = type { ptr, ptr, ptr, ptr }
%struct.jpeg_component_info = type { i32, i32, i32, i32, i32, i32, i32, i32, i32, i32, i32, i32, i32, i32, i32, i32, i32, i32, i32, ptr, ptr }

; Function Attrs: nounwind uwtable
define internal i32 @compress_output(ptr noundef %0, ptr noundef %1) #0 {
  %3 = alloca ptr, align 8
  %4 = alloca ptr, align 8
  %5 = alloca ptr, align 8
  %6 = alloca i32, align 4
  %7 = alloca i32, align 4
  %8 = alloca [4 x ptr], align 16
  %9 = alloca ptr, align 8
  store ptr %0, ptr %3, align 8, !tbaa !3
  store ptr %1, ptr %4, align 8, !tbaa !75
  call void @llvm.lifetime.start.p0(i64 8, ptr %5) #5
  %10 = load ptr, ptr %3, align 8, !tbaa !3
  %11 = getelementptr inbounds nuw %struct.jpeg_compress_struct, ptr %10, i32 0, i32 57
  %12 = load ptr, ptr %11, align 8, !tbaa !38
  store ptr %12, ptr %5, align 8, !tbaa !37
  call void @llvm.lifetime.start.p0(i64 4, ptr %6) #5
  call void @llvm.lifetime.start.p0(i64 4, ptr %7) #5
  call void @llvm.lifetime.start.p0(i64 32, ptr %8) #5
  call void @llvm.lifetime.start.p0(i64 8, ptr %9) #5
  store i32 0, ptr %6, align 4, !tbaa !8
  br label %13

13:                                               ; preds = %55, %2
  %14 = load i32, ptr %6, align 4, !tbaa !8
  %15 = load ptr, ptr %3, align 8, !tbaa !3
  %16 = getelementptr inbounds nuw %struct.jpeg_compress_struct, ptr %15, i32 0, i32 44
  %17 = load i32, ptr %16, align 4, !tbaa !69
  %18 = icmp slt i32 %14, %17
  br i1 %18, label %19, label %58

19:                                               ; preds = %13
  %20 = load ptr, ptr %3, align 8, !tbaa !3
  %21 = getelementptr inbounds nuw %struct.jpeg_compress_struct, ptr %20, i32 0, i32 45
  %22 = load i32, ptr %6, align 4, !tbaa !8
  %23 = sext i32 %22 to i64
  %24 = getelementptr inbounds [4 x ptr], ptr %21, i64 0, i64 %23
  %25 = load ptr, ptr %24, align 8, !tbaa !37
  store ptr %25, ptr %9, align 8, !tbaa !37
  %26 = load ptr, ptr %9, align 8, !tbaa !37
  %27 = getelementptr inbounds nuw %struct.jpeg_component_info, ptr %26, i32 0, i32 1
  %28 = load i32, ptr %27, align 4, !tbaa !77
  store i32 %28, ptr %7, align 4, !tbaa !8
  %29 = load ptr, ptr %3, align 8, !tbaa !3
  %30 = getelementptr inbounds nuw %struct.jpeg_compress_struct, ptr %29, i32 0, i32 1
  %31 = load ptr, ptr %30, align 8, !tbaa !34
  %32 = getelementptr inbounds nuw %struct.jpeg_memory_mgr, ptr %31, i32 0, i32 7
  %33 = load ptr, ptr %32, align 8, !tbaa !89
  %34 = load ptr, ptr %3, align 8, !tbaa !3
  %35 = load ptr, ptr %5, align 8, !tbaa !37
  %36 = getelementptr inbounds nuw %struct.my_diff_controller, ptr %35, i32 0, i32 8
  %37 = load i32, ptr %7, align 4, !tbaa !8
  %38 = sext i32 %37 to i64
  %39 = getelementptr inbounds [10 x ptr], ptr %36, i64 0, i64 %38
  %40 = load ptr, ptr %39, align 8, !tbaa !61
  %41 = load ptr, ptr %5, align 8, !tbaa !37
  %42 = getelementptr inbounds nuw %struct.my_diff_controller, ptr %41, i32 0, i32 1
  %43 = load i32, ptr %42, align 8, !tbaa !67
  %44 = load ptr, ptr %9, align 8, !tbaa !37
  %45 = getelementptr inbounds nuw %struct.jpeg_component_info, ptr %44, i32 0, i32 3
  %46 = load i32, ptr %45, align 4, !tbaa !52
  %47 = mul i32 %43, %46
  %48 = load ptr, ptr %9, align 8, !tbaa !37
  %49 = getelementptr inbounds nuw %struct.jpeg_component_info, ptr %48, i32 0, i32 3
  %50 = load i32, ptr %49, align 4, !tbaa !52
  %51 = call ptr %33(ptr noundef %34, ptr noundef %40, i32 noundef %47, i32 noundef %50, i32 noundef 0)
  %52 = load i32, ptr %7, align 4, !tbaa !8
  %53 = sext i32 %52 to i64
  %54 = getelementptr inbounds [4 x ptr], ptr %8, i64 0, i64 %53
  store ptr %51, ptr %54, align 8, !tbaa !81
  br label %55

55:                                               ; preds = %19
  %56 = load i32, ptr %6, align 4, !tbaa !8
  %57 = add nsw i32 %56, 1
  store i32 %57, ptr %6, align 4, !tbaa !8
  br label %13, !llvm.loop !92

58:                                               ; preds = %13
  %59 = load ptr, ptr %3, align 8, !tbaa !3
  %60 = getelementptr inbounds [4 x ptr], ptr %8, i64 0, i64 0
  %61 = call i32 @compress_data(ptr noundef %59, ptr noundef %60)
  call void @llvm.lifetime.end.p0(i64 8, ptr %9) #5
  call void @llvm.lifetime.end.p0(i64 32, ptr %8) #5
  call void @llvm.lifetime.end.p0(i64 4, ptr %7) #5
  call void @llvm.lifetime.end.p0(i64 4, ptr %6) #5
  call void @llvm.lifetime.end.p0(i64 8, ptr %5) #5
  ret i32 %61
}

; Function Attrs: nounwind uwtable
define internal i32 @compress_first_pass(ptr noundef %0, ptr noundef %1) #0 {
  %3 = alloca ptr, align 8
  %4 = alloca ptr, align 8
  %5 = alloca ptr, align 8
  %6 = alloca i32, align 4
  %7 = alloca i32, align 4
  %8 = alloca i32, align 4
  %9 = alloca i32, align 4
  %10 = alloca i32, align 4
  %11 = alloca ptr, align 8
  %12 = alloca ptr, align 8
  store ptr %0, ptr %3, align 8, !tbaa !3
  store ptr %1, ptr %4, align 8, !tbaa !75
  call void @llvm.lifetime.start.p0(i64 8, ptr %5) #5
  %13 = load ptr, ptr %3, align 8, !tbaa !3
  %14 = getelementptr inbounds nuw %struct.jpeg_compress_struct, ptr %13, i32 0, i32 57
  %15 = load ptr, ptr %14, align 8, !tbaa !38
  store ptr %15, ptr %5, align 8, !tbaa !37
  call void @llvm.lifetime.start.p0(i64 4, ptr %6) #5
  %16 = load ptr, ptr %3, align 8, !tbaa !3
  %17 = getelementptr inbounds nuw %struct.jpeg_compress_struct, ptr %16, i32 0, i32 43
  %18 = load i32, ptr %17, align 8, !tbaa !71
  %19 = sub i32 %18, 1
  store i32 %19, ptr %6, align 4, !tbaa !8
  call void @llvm.lifetime.start.p0(i64 4, ptr %7) #5
  call void @llvm.lifetime.start.p0(i64 4, ptr %8) #5
  call void @llvm.lifetime.start.p0(i64 4, ptr %9) #5
  call void @llvm.lifetime.start.p0(i64 4, ptr %10) #5
  call void @llvm.lifetime.start.p0(i64 8, ptr %11) #5
  call void @llvm.lifetime.start.p0(i64 8, ptr %12) #5
  store i32 0, ptr %8, align 4, !tbaa !8
  %20 = load ptr, ptr %3, align 8, !tbaa !3
  %21 = getelementptr inbounds nuw %struct.jpeg_compress_struct, ptr %20, i32 0, i32 15
  %22 = load ptr, ptr %21, align 8, !tbaa !42
  store ptr %22, ptr %12, align 8, !tbaa !37
  br label %23

23:                                               ; preds = %107, %2
  %24 = load i32, ptr %8, align 4, !tbaa !8
  %25 = load ptr, ptr %3, align 8, !tbaa !3
  %26 = getelementptr inbounds nuw %struct.jpeg_compress_struct, ptr %25, i32 0, i32 13
  %27 = load i32, ptr %26, align 4, !tbaa !43
  %28 = icmp slt i32 %24, %27
  br i1 %28, label %29, label %112

29:                                               ; preds = %23
  %30 = load ptr, ptr %3, align 8, !tbaa !3
  %31 = getelementptr inbounds nuw %struct.jpeg_compress_struct, ptr %30, i32 0, i32 1
  %32 = load ptr, ptr %31, align 8, !tbaa !34
  %33 = getelementptr inbounds nuw %struct.jpeg_memory_mgr, ptr %32, i32 0, i32 7
  %34 = load ptr, ptr %33, align 8, !tbaa !89
  %35 = load ptr, ptr %3, align 8, !tbaa !3
  %36 = load ptr, ptr %5, align 8, !tbaa !37
  %37 = getelementptr inbounds nuw %struct.my_diff_controller, ptr %36, i32 0, i32 8
  %38 = load i32, ptr %8, align 4, !tbaa !8
  %39 = sext i32 %38 to i64
  %40 = getelementptr inbounds [10 x ptr], ptr %37, i64 0, i64 %39
  %41 = load ptr, ptr %40, align 8, !tbaa !61
  %42 = load ptr, ptr %5, align 8, !tbaa !37
  %43 = getelementptr inbounds nuw %struct.my_diff_controller, ptr %42, i32 0, i32 1
  %44 = load i32, ptr %43, align 8, !tbaa !67
  %45 = load ptr, ptr %12, align 8, !tbaa !37
  %46 = getelementptr inbounds nuw %struct.jpeg_component_info, ptr %45, i32 0, i32 3
  %47 = load i32, ptr %46, align 4, !tbaa !52
  %48 = mul i32 %44, %47
  %49 = load ptr, ptr %12, align 8, !tbaa !37
  %50 = getelementptr inbounds nuw %struct.jpeg_component_info, ptr %49, i32 0, i32 3
  %51 = load i32, ptr %50, align 4, !tbaa !52
  %52 = call ptr %34(ptr noundef %35, ptr noundef %41, i32 noundef %48, i32 noundef %51, i32 noundef 1)
  store ptr %52, ptr %11, align 8, !tbaa !81
  %53 = load ptr, ptr %5, align 8, !tbaa !37
  %54 = getelementptr inbounds nuw %struct.my_diff_controller, ptr %53, i32 0, i32 1
  %55 = load i32, ptr %54, align 8, !tbaa !67
  %56 = load i32, ptr %6, align 4, !tbaa !8
  %57 = icmp ult i32 %55, %56
  br i1 %57, label %58, label %62

58:                                               ; preds = %29
  %59 = load ptr, ptr %12, align 8, !tbaa !37
  %60 = getelementptr inbounds nuw %struct.jpeg_component_info, ptr %59, i32 0, i32 3
  %61 = load i32, ptr %60, align 4, !tbaa !52
  store i32 %61, ptr %10, align 4, !tbaa !8
  br label %77

62:                                               ; preds = %29
  %63 = load ptr, ptr %12, align 8, !tbaa !37
  %64 = getelementptr inbounds nuw %struct.jpeg_component_info, ptr %63, i32 0, i32 8
  %65 = load i32, ptr %64, align 8, !tbaa !60
  %66 = load ptr, ptr %12, align 8, !tbaa !37
  %67 = getelementptr inbounds nuw %struct.jpeg_component_info, ptr %66, i32 0, i32 3
  %68 = load i32, ptr %67, align 4, !tbaa !52
  %69 = urem i32 %65, %68
  store i32 %69, ptr %10, align 4, !tbaa !8
  %70 = load i32, ptr %10, align 4, !tbaa !8
  %71 = icmp eq i32 %70, 0
  br i1 %71, label %72, label %76

72:                                               ; preds = %62
  %73 = load ptr, ptr %12, align 8, !tbaa !37
  %74 = getelementptr inbounds nuw %struct.jpeg_component_info, ptr %73, i32 0, i32 3
  %75 = load i32, ptr %74, align 4, !tbaa !52
  store i32 %75, ptr %10, align 4, !tbaa !8
  br label %76

76:                                               ; preds = %72, %62
  br label %77

77:                                               ; preds = %76, %58
  %78 = load ptr, ptr %12, align 8, !tbaa !37
  %79 = getelementptr inbounds nuw %struct.jpeg_component_info, ptr %78, i32 0, i32 7
  %80 = load i32, ptr %79, align 4, !tbaa !45
  store i32 %80, ptr %7, align 4, !tbaa !8
  store i32 0, ptr %9, align 4, !tbaa !8
  br label %81

81:                                               ; preds = %103, %77
  %82 = load i32, ptr %9, align 4, !tbaa !8
  %83 = load i32, ptr %10, align 4, !tbaa !8
  %84 = icmp slt i32 %82, %83
  br i1 %84, label %85, label %106

85:                                               ; preds = %81
  %86 = load ptr, ptr %11, align 8, !tbaa !81
  %87 = load i32, ptr %9, align 4, !tbaa !8
  %88 = sext i32 %87 to i64
  %89 = getelementptr inbounds ptr, ptr %86, i64 %88
  %90 = load ptr, ptr %89, align 8, !tbaa !48
  %91 = load ptr, ptr %4, align 8, !tbaa !75
  %92 = load i32, ptr %8, align 4, !tbaa !8
  %93 = sext i32 %92 to i64
  %94 = getelementptr inbounds ptr, ptr %91, i64 %93
  %95 = load ptr, ptr %94, align 8, !tbaa !81
  %96 = load i32, ptr %9, align 4, !tbaa !8
  %97 = sext i32 %96 to i64
  %98 = getelementptr inbounds ptr, ptr %95, i64 %97
  %99 = load ptr, ptr %98, align 8, !tbaa !48
  %100 = load i32, ptr %7, align 4, !tbaa !8
  %101 = zext i32 %100 to i64
  %102 = mul i64 %101, 1
  call void @llvm.memcpy.p0.p0.i64(ptr align 1 %90, ptr align 1 %99, i64 %102, i1 false)
  br label %103

103:                                              ; preds = %85
  %104 = load i32, ptr %9, align 4, !tbaa !8
  %105 = add nsw i32 %104, 1
  store i32 %105, ptr %9, align 4, !tbaa !8
  br label %81, !llvm.loop !90

106:                                              ; preds = %81
  br label %107

107:                                              ; preds = %106
  %108 = load i32, ptr %8, align 4, !tbaa !8
  %109 = add nsw i32 %108, 1
  store i32 %109, ptr %8, align 4, !tbaa !8
  %110 = load ptr, ptr %12, align 8, !tbaa !37
  %111 = getelementptr inbounds nuw %struct.jpeg_component_info, ptr %110, i32 1
  store ptr %111, ptr %12, align 8, !tbaa !37
  br label %23, !llvm.loop !91

112:                                              ; preds = %23
  %113 = load ptr, ptr %3, align 8, !tbaa !3
  %114 = load ptr, ptr %4, align 8, !tbaa !75
  %115 = call i32 @compress_output(ptr noundef %113, ptr noundef %114)
  call void @llvm.lifetime.end.p0(i64 8, ptr %12) #5
  call void @llvm.lifetime.end.p0(i64 8, ptr %11) #5
  call void @llvm.lifetime.end.p0(i64 4, ptr %10) #5
  call void @llvm.lifetime.end.p0(i64 4, ptr %9) #5
  call void @llvm.lifetime.end.p0(i64 4, ptr %8) #5
  call void @llvm.lifetime.end.p0(i64 4, ptr %7) #5
  call void @llvm.lifetime.end.p0(i64 4, ptr %6) #5
  call void @llvm.lifetime.end.p0(i64 8, ptr %5) #5
  ret i32 %115
}