; Function Attrs: nounwind uwtable
define internal range(i32 0, 2) i32 @compress_first_pass(ptr noundef %0, ptr noundef readonly captures(none) %1) #0 {
  %3 = alloca [4 x ptr], align 16
  %4 = getelementptr inbounds nuw i8, ptr %0, i64 456
  %5 = getelementptr inbounds nuw i8, ptr %0, i64 320
  %6 = load i32, ptr %5, align 8, !tbaa !66
  %7 = add i32 %6, -1
  %8 = getelementptr inbounds nuw i8, ptr %0, i64 76
  %9 = load i32, ptr %8, align 4, !tbaa !38
  %10 = icmp sgt i32 %9, 0
  br i1 %10, label %.lr.ph40, label %._crit_edge41

.lr.ph40:                                         ; preds = %2
  %11 = getelementptr inbounds nuw i8, ptr %0, i64 88
  %12 = load ptr, ptr %11, align 8, !tbaa !39
  %13 = load ptr, ptr %4, align 8, !tbaa !34
  %14 = getelementptr inbounds nuw i8, ptr %0, i64 8
  %15 = getelementptr inbounds nuw i8, ptr %13, i64 288
  %16 = getelementptr inbounds nuw i8, ptr %13, i64 32
  br label %17

17:                                               ; preds = %.lr.ph40, %._crit_edge
  %indvars.iv43 = phi i64 [ 0, %.lr.ph40 ], [ %indvars.iv.next44, %._crit_edge ]
  %.038 = phi ptr [ %12, %.lr.ph40 ], [ %50, %._crit_edge ]
  %18 = load ptr, ptr %14, align 8, !tbaa !31
  %19 = getelementptr inbounds nuw i8, ptr %18, i64 56
  %20 = load ptr, ptr %19, align 8, !tbaa !84
  %21 = getelementptr inbounds nuw [10 x ptr], ptr %15, i64 0, i64 %indvars.iv43
  %22 = load ptr, ptr %21, align 8, !tbaa !57
  %23 = load i32, ptr %16, align 8, !tbaa !63
  %24 = getelementptr inbounds nuw i8, ptr %.038, i64 12
  %25 = load i32, ptr %24, align 4, !tbaa !48
  %26 = mul i32 %25, %23
  %27 = tail call ptr %20(ptr noundef nonnull %0, ptr noundef %22, i32 noundef %26, i32 noundef %25, i32 noundef 1) #5
  %28 = load i32, ptr %16, align 8, !tbaa !63
  %29 = icmp ult i32 %28, %7
  br i1 %29, label %30, label %32

30:                                               ; preds = %17
  %31 = load i32, ptr %24, align 4, !tbaa !48
  br label %38

32:                                               ; preds = %17
  %33 = getelementptr inbounds nuw i8, ptr %.038, i64 32
  %34 = load i32, ptr %33, align 8, !tbaa !56
  %35 = load i32, ptr %24, align 4, !tbaa !48
  %36 = urem i32 %34, %35
  %37 = icmp eq i32 %36, 0
  %spec.select = select i1 %37, i32 %35, i32 %36
  br label %38

38:                                               ; preds = %32, %30
  %.033 = phi i32 [ %31, %30 ], [ %spec.select, %32 ]
  %39 = icmp sgt i32 %.033, 0
  br i1 %39, label %.lr.ph, label %._crit_edge

.lr.ph:                                           ; preds = %38
  %40 = getelementptr inbounds nuw i8, ptr %.038, i64 28
  %41 = load i32, ptr %40, align 4, !tbaa !41
  %42 = getelementptr inbounds nuw ptr, ptr %1, i64 %indvars.iv43
  %43 = zext i32 %41 to i64
  %wide.trip.count = zext nneg i32 %.033 to i64
  br label %44

44:                                               ; preds = %.lr.ph, %44
  %indvars.iv = phi i64 [ 0, %.lr.ph ], [ %indvars.iv.next, %44 ]
  %45 = getelementptr inbounds nuw ptr, ptr %27, i64 %indvars.iv
  %46 = load ptr, ptr %45, align 8, !tbaa !44
  %47 = load ptr, ptr %42, align 8, !tbaa !76
  %48 = getelementptr inbounds nuw ptr, ptr %47, i64 %indvars.iv
  %49 = load ptr, ptr %48, align 8, !tbaa !44
  tail call void @llvm.memcpy.p0.p0.i64(ptr align 1 %46, ptr align 1 %49, i64 %43, i1 false)
  %indvars.iv.next = add nuw nsw i64 %indvars.iv, 1
  %exitcond.not = icmp eq i64 %indvars.iv.next, %wide.trip.count
  br i1 %exitcond.not, label %._crit_edge, label %44, !llvm.loop !85

._crit_edge:                                      ; preds = %44, %38
  %indvars.iv.next44 = add nuw nsw i64 %indvars.iv43, 1
  %50 = getelementptr inbounds nuw i8, ptr %.038, i64 96
  %51 = load i32, ptr %8, align 4, !tbaa !38
  %52 = sext i32 %51 to i64
  %53 = icmp slt i64 %indvars.iv.next44, %52
  br i1 %53, label %17, label %._crit_edge41, !llvm.loop !86

._crit_edge41:                                    ; preds = %._crit_edge, %2
  %54 = load ptr, ptr %4, align 8, !tbaa !34
  call void @llvm.lifetime.start.p0(i64 32, ptr nonnull %3) #5
  %55 = getelementptr inbounds nuw i8, ptr %0, i64 324
  %56 = load i32, ptr %55, align 4, !tbaa !64
  %57 = icmp sgt i32 %56, 0
  br i1 %57, label %.lr.ph.i, label %compress_output.exit

.lr.ph.i:                                         ; preds = %._crit_edge41
  %58 = getelementptr inbounds nuw i8, ptr %0, i64 328
  %59 = getelementptr inbounds nuw i8, ptr %0, i64 8
  %60 = getelementptr inbounds nuw i8, ptr %54, i64 288
  %61 = getelementptr inbounds nuw i8, ptr %54, i64 32
  br label %62

62:                                               ; preds = %62, %.lr.ph.i
  %indvars.iv.i = phi i64 [ 0, %.lr.ph.i ], [ %indvars.iv.next.i, %62 ]
  %63 = getelementptr inbounds nuw [4 x ptr], ptr %58, i64 0, i64 %indvars.iv.i
  %64 = load ptr, ptr %63, align 8, !tbaa !67
  %65 = getelementptr inbounds nuw i8, ptr %64, i64 4
  %66 = load i32, ptr %65, align 4, !tbaa !72
  %67 = load ptr, ptr %59, align 8, !tbaa !31
  %68 = getelementptr inbounds nuw i8, ptr %67, i64 56
  %69 = load ptr, ptr %68, align 8, !tbaa !84
  %70 = sext i32 %66 to i64
  %71 = getelementptr inbounds [10 x ptr], ptr %60, i64 0, i64 %70
  %72 = load ptr, ptr %71, align 8, !tbaa !57
  %73 = load i32, ptr %61, align 8, !tbaa !63
  %74 = getelementptr inbounds nuw i8, ptr %64, i64 12
  %75 = load i32, ptr %74, align 4, !tbaa !48
  %76 = mul i32 %75, %73
  %77 = tail call ptr %69(ptr noundef nonnull %0, ptr noundef %72, i32 noundef %76, i32 noundef %75, i32 noundef 0) #5
  %78 = getelementptr inbounds [4 x ptr], ptr %3, i64 0, i64 %70
  store ptr %77, ptr %78, align 8, !tbaa !76
  %indvars.iv.next.i = add nuw nsw i64 %indvars.iv.i, 1
  %79 = load i32, ptr %55, align 4, !tbaa !64
  %80 = sext i32 %79 to i64
  %81 = icmp slt i64 %indvars.iv.next.i, %80
  br i1 %81, label %62, label %compress_output.exit, !llvm.loop !87

compress_output.exit:                             ; preds = %62, %._crit_edge41
  %82 = call range(i32 0, 2) i32 @compress_data(ptr noundef nonnull %0, ptr noundef nonnull %3)
  call void @llvm.lifetime.end.p0(i64 32, ptr nonnull %3) #5
  ret i32 %82
}